; ModuleID = 'bench/opencv/original/gcommon.cpp.ll'
source_filename = "bench/opencv/original/gcommon.cpp.ll"
target datalayout = "e-m:e-p270:32:32-p271:32:32-p272:64:64-i64:64-i128:128-f80:128-n8:16:32:64-S128"
target triple = "x86_64-pc-linux-gnu"

%"class.std::ios_base::Init" = type { i8 }

@_ZStL8__ioinit = internal global %"class.std::ios_base::Init" zeroinitializer, align 1
@__dso_handle = external hidden global i8
@llvm.global_ctors = appending global [1 x { i32, ptr, ptr }] [{ i32, ptr, ptr } { i32 65535, ptr @_GLOBAL__sub_I_gcommon.cpp, ptr null }]

@_ZN2cv21use_threaded_executorC1Ev = unnamed_addr alias void (ptr), ptr @_ZN2cv21use_threaded_executorC2Ev
@_ZN2cv21use_threaded_executorC1Ej = unnamed_addr alias void (ptr, i32), ptr @_ZN2cv21use_threaded_executorC2Ej

declare void @_ZNSt8ios_base4InitC1Ev(ptr noundef nonnull align 1 dereferenceable(1)) unnamed_addr #0

; Function Attrs: nounwind
declare void @_ZNSt8ios_base4InitD1Ev(ptr noundef nonnull align 1 dereferenceable(1)) unnamed_addr #1

; Function Attrs: nofree nounwind
declare i32 @__cxa_atexit(ptr, ptr, ptr) local_unnamed_addr #2

; Function Attrs: mustprogress uwtable
define void @_ZN2cv21use_threaded_executorC2Ev(ptr nocapture noundef nonnull writeonly align 4 dereferenceable(4) %0) unnamed_addr #3 align 2 {
  %2 = tail call noundef i32 @_ZN2cv13getNumThreadsEv()
  store i32 %2, ptr %0, align 4
  ret void
}

declare noundef i32 @_ZN2cv13getNumThreadsEv() local_unnamed_addr #0

; Function Attrs: mustprogress nofree norecurse nosync nounwind willreturn memory(argmem: write) uwtable
define void @_ZN2cv21use_threaded_executorC2Ej(ptr nocapture noundef nonnull writeonly align 4 dereferenceable(4) %0, i32 noundef %1) unnamed_addr #4 align 2 {
  store i32 %1, ptr %0, align 4
  ret void
}

; Function Attrs: uwtable
define internal void @_GLOBAL__sub_I_gcommon.cpp() #5 section ".text.startup" {
  tail call void @_ZNSt8ios_base4InitC1Ev(ptr noundef nonnull align 1 dereferenceable(1) @_ZStL8__ioinit)
  %1 = tail call i32 @__cxa_atexit(ptr nonnull @_ZNSt8ios_base4InitD1Ev, ptr nonnull @_ZStL8__ioinit, ptr nonnull @__dso_handle) #6
  ret void
}


!llvm.module.flags = !{!0, !1, !2, !3}

!0 = !{i32 1, !"wchar_size", i32 4}
!1 = !{i32 8, !"PIC Level", i32 2}
!2 = !{i32 7, !"uwtable", i32 2}
!3 = !{i32 7, !"frame-pointer", i32 2}
